; Function Attrs: mustprogress nounwind uwtable
define dso_local noundef ptr @_ZN4llvm10emitStrChrEPNS_5ValueEcRNS_13IRBuilderBaseEPKNS_17TargetLibraryInfoE(ptr noundef %0, i8 noundef signext %1, ptr noundef nonnull align 8 dereferenceable(128) %2, ptr noundef %3) local_unnamed_addr #0 {
  %5 = alloca [2 x ptr], align 8
  %6 = alloca [2 x ptr], align 8
  %7 = getelementptr inbounds nuw i8, ptr %2, i64 72
  %8 = load ptr, ptr %7, align 8
  %9 = tail call noundef ptr @_ZN4llvm11PointerType3getERNS_11LLVMContextEj(ptr noundef nonnull align 8 dereferenceable(8) %8, i32 noundef 0) #7
  %.val = load ptr, ptr %7, align 8
  %.val10 = load ptr, ptr %3, align 8
  %10 = getelementptr i8, ptr %.val10, i64 156
  %.val10.val = load i32, ptr %10, align 4
  %11 = tail call noundef ptr @_ZN4llvm4Type9getIntNTyERNS_11LLVMContextEj(ptr noundef nonnull align 8 dereferenceable(8) %.val, i32 noundef %.val10.val) #7
  store ptr %9, ptr %5, align 8
  %12 = getelementptr inbounds i8, ptr %5, i64 8
  store ptr %11, ptr %12, align 8
  store ptr %0, ptr %6, align 8
  %13 = getelementptr inbounds i8, ptr %6, i64 8
  %14 = sext i8 %1 to i64
  %15 = tail call noundef ptr @_ZN4llvm11ConstantInt3getEPNS_4TypeEmb(ptr noundef %11, i64 noundef %14, i1 noundef zeroext false) #7
  store ptr %15, ptr %13, align 8
  %16 = call fastcc noundef ptr @_ZL11emitLibCallN4llvm7LibFuncEPNS_4TypeENS_8ArrayRefIS2_EENS3_IPNS_5ValueEEERNS_13IRBuilderBaseEPKNS_17TargetLibraryInfoEb(i32 noundef 438, ptr noundef %9, ptr nonnull %5, i64 2, ptr nonnull %6, i64 2, ptr noundef nonnull align 8 dereferenceable(128) %2, ptr noundef nonnull %3, i1 noundef zeroext false)
  ret ptr %16
}